target datalayout = "e-m:e-p270:32:32-p271:32:32-p272:64:64-i64:64-i128:128-f80:128-n8:16:32:64-S128"
target triple = "x86_64-pc-linux-gnu"

@.str.12 = private unnamed_addr constant [19 x i8] c"button-press-event\00", align 1
@.str.15 = private unnamed_addr constant [14 x i8] c"value-changed\00", align 1
@.str.501 = private unnamed_addr constant [7 x i8] c"halign\00", align 1
@.str.502 = private unnamed_addr constant [7 x i8] c"xalign\00", align 1
@.str.503 = private unnamed_addr constant [10 x i8] c"ellipsize\00", align 1

; Function Attrs: inlinehint nounwind uwtable
define internal ptr @dt_ui_label_new(ptr noundef %0) #7 {
  %2 = alloca ptr, align 8
  %3 = alloca ptr, align 8
  store ptr %0, ptr %2, align 8, !tbaa !73
  call void @llvm.lifetime.start.p0(i64 8, ptr %3) #10
  %4 = load ptr, ptr %2, align 8, !tbaa !73
  %5 = call ptr @gtk_label_new(ptr noundef %4)
  store ptr %5, ptr %3, align 8, !tbaa !6
  %6 = load ptr, ptr %3, align 8, !tbaa !6
  call void (ptr, ptr, ...) @g_object_set(ptr noundef %6, ptr noundef @.str.501, i32 noundef 1, ptr noundef @.str.502, double noundef 0.000000e+00, ptr noundef @.str.503, i32 noundef 3, ptr noundef null)
  %7 = load ptr, ptr %3, align 8, !tbaa !6
  call void @llvm.lifetime.end.p0(i64 8, ptr %3) #10
  ret ptr %7
}

; Function Attrs: nounwind uwtable
define ptr @dt_gui_preferences_int(ptr noundef %0, ptr noundef %1, i32 noundef %2, i32 noundef %3) #0 {
  %5 = alloca ptr, align 8
  %6 = alloca ptr, align 8
  %7 = alloca i32, align 4
  %8 = alloca i32, align 4
  %9 = alloca ptr, align 8
  %10 = alloca ptr, align 8
  %11 = alloca i32, align 4
  %12 = alloca i32, align 4
  %13 = alloca ptr, align 8
  store ptr %0, ptr %5, align 8, !tbaa !111
  store ptr %1, ptr %6, align 8, !tbaa !73
  store i32 %2, ptr %7, align 4, !tbaa !57
  store i32 %3, ptr %8, align 4, !tbaa !57
  call void @llvm.lifetime.start.p0(i64 8, ptr %9) #10
  %14 = load ptr, ptr %6, align 8, !tbaa !73
  %15 = call ptr @dt_confgen_get_label(ptr noundef %14)
  %16 = call ptr @dcgettext(ptr noundef null, ptr noundef %15, i32 noundef 5) #10
  %17 = call ptr @dt_ui_label_new(ptr noundef %16)
  store ptr %17, ptr %9, align 8, !tbaa !6
  %18 = load ptr, ptr %9, align 8, !tbaa !6
  %19 = load ptr, ptr %6, align 8, !tbaa !73
  %20 = call ptr @dt_confgen_get_tooltip(ptr noundef %19)
  %21 = call ptr @dcgettext(ptr noundef null, ptr noundef %20, i32 noundef 5) #10
  call void @gtk_widget_set_tooltip_text(ptr noundef %18, ptr noundef %21)
  call void @llvm.lifetime.start.p0(i64 8, ptr %10) #10
  %22 = call ptr @gtk_event_box_new()
  store ptr %22, ptr %10, align 8, !tbaa !6
  %23 = load ptr, ptr %10, align 8, !tbaa !6
  call void @gtk_widget_add_events(ptr noundef %23, i32 noundef 256)
  %24 = load ptr, ptr %10, align 8, !tbaa !6
  %25 = call i64 @gtk_container_get_type() #11
  %26 = call ptr @g_type_check_instance_cast(ptr noundef %24, i64 noundef %25)
  %27 = load ptr, ptr %9, align 8, !tbaa !6
  call void @gtk_container_add(ptr noundef %26, ptr noundef %27)
  call void @llvm.lifetime.start.p0(i64 4, ptr %11) #10
  %28 = load ptr, ptr %6, align 8, !tbaa !73
  %29 = call i32 @dt_confgen_get_int(ptr noundef %28, i32 noundef 1)
  %30 = icmp sgt i32 -2147483648, %29
  br i1 %30, label %31, label %32

31:                                               ; preds = %4
  br label %35

32:                                               ; preds = %4
  %33 = load ptr, ptr %6, align 8, !tbaa !73
  %34 = call i32 @dt_confgen_get_int(ptr noundef %33, i32 noundef 1)
  br label %35

35:                                               ; preds = %32, %31
  %36 = phi i32 [ -2147483648, %31 ], [ %34, %32 ]
  store i32 %36, ptr %11, align 4, !tbaa !57
  call void @llvm.lifetime.start.p0(i64 4, ptr %12) #10
  %37 = load ptr, ptr %6, align 8, !tbaa !73
  %38 = call i32 @dt_confgen_get_int(ptr noundef %37, i32 noundef 2)
  %39 = icmp slt i32 2147483647, %38
  br i1 %39, label %40, label %41

40:                                               ; preds = %35
  br label %44

41:                                               ; preds = %35
  %42 = load ptr, ptr %6, align 8, !tbaa !73
  %43 = call i32 @dt_confgen_get_int(ptr noundef %42, i32 noundef 2)
  br label %44

44:                                               ; preds = %41, %40
  %45 = phi i32 [ 2147483647, %40 ], [ %43, %41 ]
  store i32 %45, ptr %12, align 4, !tbaa !57
  call void @llvm.lifetime.start.p0(i64 8, ptr %13) #10
  %46 = load i32, ptr %11, align 4, !tbaa !57
  %47 = sitofp i32 %46 to double
  %48 = load i32, ptr %12, align 4, !tbaa !57
  %49 = sitofp i32 %48 to double
  %50 = call ptr @gtk_spin_button_new_with_range(double noundef %47, double noundef %49, double noundef 1.000000e+00)
  store ptr %50, ptr %13, align 8, !tbaa !6
  %51 = load ptr, ptr %13, align 8, !tbaa !6
  %52 = load ptr, ptr %6, align 8, !tbaa !73
  call void @gtk_widget_set_name(ptr noundef %51, ptr noundef %52)
  %53 = load ptr, ptr %13, align 8, !tbaa !6
  call void @gtk_widget_set_hexpand(ptr noundef %53, i32 noundef 0)
  %54 = load ptr, ptr %13, align 8, !tbaa !6
  %55 = call i64 @gtk_spin_button_get_type() #11
  %56 = call ptr @g_type_check_instance_cast(ptr noundef %54, i64 noundef %55)
  call void @gtk_spin_button_set_digits(ptr noundef %56, i32 noundef 0)
  %57 = load ptr, ptr %13, align 8, !tbaa !6
  %58 = call i64 @gtk_spin_button_get_type() #11
  %59 = call ptr @g_type_check_instance_cast(ptr noundef %57, i64 noundef %58)
  %60 = load ptr, ptr %6, align 8, !tbaa !73
  %61 = call i32 @dt_conf_get_int(ptr noundef %60)
  %62 = sitofp i32 %61 to double
  call void @gtk_spin_button_set_value(ptr noundef %59, double noundef %62)
  %63 = load ptr, ptr %5, align 8, !tbaa !111
  %64 = call i64 @gtk_grid_get_type() #11
  %65 = call ptr @g_type_check_instance_cast(ptr noundef %63, i64 noundef %64)
  %66 = load ptr, ptr %10, align 8, !tbaa !6
  %67 = load i32, ptr %7, align 4, !tbaa !57
  %68 = load i32, ptr %8, align 4, !tbaa !57
  call void @gtk_grid_attach(ptr noundef %65, ptr noundef %66, i32 noundef %67, i32 noundef %68, i32 noundef 1, i32 noundef 1)
  %69 = load ptr, ptr %5, align 8, !tbaa !111
  %70 = call i64 @gtk_grid_get_type() #11
  %71 = call ptr @g_type_check_instance_cast(ptr noundef %69, i64 noundef %70)
  %72 = load ptr, ptr %13, align 8, !tbaa !6
  %73 = load i32, ptr %7, align 4, !tbaa !57
  %74 = add i32 %73, 1
  %75 = load i32, ptr %8, align 4, !tbaa !57
  call void @gtk_grid_attach(ptr noundef %71, ptr noundef %72, i32 noundef %74, i32 noundef %75, i32 noundef 1, i32 noundef 1)
  %76 = load ptr, ptr %13, align 8, !tbaa !6
  %77 = call ptr @g_type_check_instance_cast(ptr noundef %76, i64 noundef 80)
  %78 = load ptr, ptr %6, align 8, !tbaa !73
  %79 = call i64 @g_signal_connect_data(ptr noundef %77, ptr noundef @.str.15, ptr noundef @_gui_preferences_int_callback, ptr noundef %78, ptr noundef null, i32 noundef 0)
  %80 = load ptr, ptr %10, align 8, !tbaa !6
  %81 = call ptr @g_type_check_instance_cast(ptr noundef %80, i64 noundef 80)
  %82 = load ptr, ptr %13, align 8, !tbaa !6
  %83 = call i64 @g_signal_connect_data(ptr noundef %81, ptr noundef @.str.12, ptr noundef @_gui_preferences_int_reset, ptr noundef %82, ptr noundef null, i32 noundef 0)
  %84 = load ptr, ptr %13, align 8, !tbaa !6
  call void @llvm.lifetime.end.p0(i64 8, ptr %13) #10
  call void @llvm.lifetime.end.p0(i64 4, ptr %12) #10
  call void @llvm.lifetime.end.p0(i64 4, ptr %11) #10
  call void @llvm.lifetime.end.p0(i64 8, ptr %10) #10
  call void @llvm.lifetime.end.p0(i64 8, ptr %9) #10
  ret ptr %84
}