; Function Attrs: nounwind uwtable
define noundef ptr @dt_gui_preferences_int(ptr noundef %0, ptr noundef %1, i32 noundef %2, i32 noundef %3) local_unnamed_addr #0 {
  %5 = tail call ptr @dt_confgen_get_label(ptr noundef %1) #12
  %6 = tail call ptr @dcgettext(ptr noundef null, ptr noundef %5, i32 noundef 5) #12
  %7 = tail call ptr @gtk_label_new(ptr noundef %6) #12
  tail call void (ptr, ptr, ...) @g_object_set(ptr noundef %7, ptr noundef nonnull @.str.501, i32 noundef 1, ptr noundef nonnull @.str.502, double noundef 0.000000e+00, ptr noundef nonnull @.str.503, i32 noundef 3, ptr noundef null) #12
  %8 = tail call ptr @dt_confgen_get_tooltip(ptr noundef %1) #12
  %9 = tail call ptr @dcgettext(ptr noundef null, ptr noundef %8, i32 noundef 5) #12
  tail call void @gtk_widget_set_tooltip_text(ptr noundef %7, ptr noundef %9) #12
  %10 = tail call ptr @gtk_event_box_new() #12
  tail call void @gtk_widget_add_events(ptr noundef %10, i32 noundef 256) #12
  %11 = tail call i64 @gtk_container_get_type() #13
  %12 = tail call ptr @g_type_check_instance_cast(ptr noundef %10, i64 noundef %11) #12
  tail call void @gtk_container_add(ptr noundef %12, ptr noundef %7) #12
  %13 = tail call i32 @dt_confgen_get_int(ptr noundef %1, i32 noundef 1) #12
  %14 = tail call i32 @dt_confgen_get_int(ptr noundef %1, i32 noundef 1) #12
  %15 = tail call i32 @dt_confgen_get_int(ptr noundef %1, i32 noundef 2) #12
  %16 = tail call i32 @dt_confgen_get_int(ptr noundef %1, i32 noundef 2) #12
  %17 = sitofp i32 %14 to double
  %18 = sitofp i32 %16 to double
  %19 = tail call ptr @gtk_spin_button_new_with_range(double noundef %17, double noundef %18, double noundef 1.000000e+00) #12
  tail call void @gtk_widget_set_name(ptr noundef %19, ptr noundef %1) #12
  tail call void @gtk_widget_set_hexpand(ptr noundef %19, i32 noundef 0) #12
  %20 = tail call i64 @gtk_spin_button_get_type() #13
  %21 = tail call ptr @g_type_check_instance_cast(ptr noundef %19, i64 noundef %20) #12
  tail call void @gtk_spin_button_set_digits(ptr noundef %21, i32 noundef 0) #12
  %22 = tail call ptr @g_type_check_instance_cast(ptr noundef %19, i64 noundef %20) #12
  %23 = tail call i32 @dt_conf_get_int(ptr noundef %1) #12
  %24 = sitofp i32 %23 to double
  tail call void @gtk_spin_button_set_value(ptr noundef %22, double noundef %24) #12
  %25 = tail call i64 @gtk_grid_get_type() #13
  %26 = tail call ptr @g_type_check_instance_cast(ptr noundef %0, i64 noundef %25) #12
  tail call void @gtk_grid_attach(ptr noundef %26, ptr noundef %10, i32 noundef %2, i32 noundef %3, i32 noundef 1, i32 noundef 1) #12
  %27 = tail call ptr @g_type_check_instance_cast(ptr noundef %0, i64 noundef %25) #12
  %28 = add i32 %2, 1
  tail call void @gtk_grid_attach(ptr noundef %27, ptr noundef %19, i32 noundef %28, i32 noundef %3, i32 noundef 1, i32 noundef 1) #12
  %29 = tail call ptr @g_type_check_instance_cast(ptr noundef %19, i64 noundef 80) #12
  %30 = tail call i64 @g_signal_connect_data(ptr noundef %29, ptr noundef nonnull @.str.15, ptr noundef nonnull @_gui_preferences_int_callback, ptr noundef %1, ptr noundef null, i32 noundef 0) #12
  %31 = tail call ptr @g_type_check_instance_cast(ptr noundef %10, i64 noundef 80) #12
  %32 = tail call i64 @g_signal_connect_data(ptr noundef %31, ptr noundef nonnull @.str.12, ptr noundef nonnull @_gui_preferences_int_reset, ptr noundef %19, ptr noundef null, i32 noundef 0) #12
  ret ptr %19
}